; Function Attrs: nounwind uwtable
define range(i32 -22, 1) i32 @av_fifo_read(ptr noundef captures(none) %0, ptr noundef writeonly captures(none) %1, i64 noundef %2) local_unnamed_addr #0 {
  %4 = getelementptr inbounds nuw i8, ptr %0, i64 24
  %5 = load i64, ptr %4, align 8, !tbaa !18
  %6 = getelementptr inbounds nuw i8, ptr %0, i64 32
  %7 = load i64, ptr %6, align 8, !tbaa !17
  %.not.i.i = icmp ugt i64 %7, %5
  br i1 %.not.i.i, label %16, label %8

8:                                                ; preds = %3
  %9 = getelementptr inbounds nuw i8, ptr %0, i64 40
  %10 = load i32, ptr %9, align 8, !tbaa !14
  %.not10.i.i = icmp eq i32 %10, 0
  br i1 %.not10.i.i, label %11, label %16

11:                                               ; preds = %8
  %12 = getelementptr inbounds nuw i8, ptr %0, i64 16
  %13 = load i64, ptr %12, align 8, !tbaa !12
  %14 = sub i64 %7, %5
  %15 = add i64 %14, %13
  br label %av_fifo_can_read.exit.i

16:                                               ; preds = %8, %3
  %17 = sub i64 %7, %5
  br label %av_fifo_can_read.exit.i

av_fifo_can_read.exit.i:                          ; preds = %16, %11
  %.0.i.i = phi i64 [ %17, %16 ], [ %15, %11 ]
  %18 = icmp ugt i64 %2, %.0.i.i
  br i1 %18, label %fifo_peek_common.exit, label %19

19:                                               ; preds = %av_fifo_can_read.exit.i
  %20 = getelementptr inbounds nuw i8, ptr %0, i64 16
  %.not6680.i = icmp eq i64 %2, 0
  br i1 %.not6680.i, label %fifo_peek_common.exit, label %.lr.ph.i

.lr.ph.i:                                         ; preds = %19
  %21 = load i64, ptr %20, align 8, !tbaa !12
  %.not.i = icmp ult i64 %5, %21
  %22 = select i1 %.not.i, i64 0, i64 %21
  %.051.i11 = sub i64 %5, %22
  %23 = getelementptr inbounds nuw i8, ptr %0, i64 8
  %.pre.i = load i64, ptr %23, align 8, !tbaa !13
  br label %.lr.ph.split.us.i

.lr.ph.split.us.i:                                ; preds = %.lr.ph.split.us.i, %.lr.ph.i
  %24 = phi i64 [ %31, %.lr.ph.split.us.i ], [ %.pre.i, %.lr.ph.i ]
  %25 = phi i64 [ %35, %.lr.ph.split.us.i ], [ %21, %.lr.ph.i ]
  %.04883.us.i = phi ptr [ %33, %.lr.ph.split.us.i ], [ %1, %.lr.ph.i ]
  %.15282.us.i = phi i64 [ %spec.store.select.us.i, %.lr.ph.split.us.i ], [ %.051.i11, %.lr.ph.i ]
  %.05481.us.i = phi i64 [ %36, %.lr.ph.split.us.i ], [ %2, %.lr.ph.i ]
  %26 = sub i64 %25, %.15282.us.i
  %.054..us.i = tail call i64 @llvm.umin.i64(i64 %26, i64 %.05481.us.i)
  %27 = load ptr, ptr %0, align 8, !tbaa !4
  %28 = mul i64 %.15282.us.i, %24
  %29 = getelementptr inbounds nuw i8, ptr %27, i64 %28
  %30 = mul i64 %.054..us.i, %24
  tail call void @llvm.memcpy.p0.p0.i64(ptr align 1 %.04883.us.i, ptr align 1 %29, i64 %30, i1 false)
  %31 = load i64, ptr %23, align 8, !tbaa !13
  %32 = mul i64 %31, %.054..us.i
  %33 = getelementptr inbounds nuw i8, ptr %.04883.us.i, i64 %32
  %34 = add i64 %.054..us.i, %.15282.us.i
  %35 = load i64, ptr %20, align 8, !tbaa !12
  %.not68.us.i = icmp ult i64 %34, %35
  %spec.store.select.us.i = select i1 %.not68.us.i, i64 %34, i64 0
  %36 = sub i64 %.05481.us.i, %.054..us.i
  %.not66.us.i = icmp eq i64 %36, 0
  br i1 %.not66.us.i, label %fifo_peek_common.exit.loopexit, label %.lr.ph.split.us.i

fifo_peek_common.exit.loopexit:                   ; preds = %.lr.ph.split.us.i
  %.pre = load i64, ptr %6, align 8, !tbaa !17
  %.pre13 = load i64, ptr %4, align 8, !tbaa !18
  br label %fifo_peek_common.exit

fifo_peek_common.exit:                            ; preds = %fifo_peek_common.exit.loopexit, %19, %av_fifo_can_read.exit.i
  %37 = phi i64 [ %5, %av_fifo_can_read.exit.i ], [ %5, %19 ], [ %.pre13, %fifo_peek_common.exit.loopexit ]
  %38 = phi i64 [ %7, %av_fifo_can_read.exit.i ], [ %7, %19 ], [ %.pre, %fifo_peek_common.exit.loopexit ]
  %storemerge.i = phi i64 [ 0, %av_fifo_can_read.exit.i ], [ 0, %19 ], [ %2, %fifo_peek_common.exit.loopexit ]
  %.0.i = phi i32 [ -22, %av_fifo_can_read.exit.i ], [ 0, %19 ], [ 0, %fifo_peek_common.exit.loopexit ]
  %.not.i.i3 = icmp ugt i64 %38, %37
  br i1 %.not.i.i3, label %47, label %39

39:                                               ; preds = %fifo_peek_common.exit
  %40 = getelementptr inbounds nuw i8, ptr %0, i64 40
  %41 = load i32, ptr %40, align 8, !tbaa !14
  %.not10.i.i4 = icmp eq i32 %41, 0
  br i1 %.not10.i.i4, label %42, label %47

42:                                               ; preds = %39
  %43 = getelementptr inbounds nuw i8, ptr %0, i64 16
  %44 = load i64, ptr %43, align 8, !tbaa !12
  %45 = sub i64 %38, %37
  %46 = add i64 %45, %44
  br label %av_fifo_can_read.exit.i5

47:                                               ; preds = %39, %fifo_peek_common.exit
  %48 = sub i64 %38, %37
  br label %av_fifo_can_read.exit.i5

av_fifo_can_read.exit.i5:                         ; preds = %47, %42
  %.0.i.i6 = phi i64 [ %48, %47 ], [ %46, %42 ]
  %.not.i7 = icmp ult i64 %.0.i.i6, %storemerge.i
  br i1 %.not.i7, label %49, label %50

49:                                               ; preds = %av_fifo_can_read.exit.i5
  tail call void (ptr, i32, ptr, ...) @av_log(ptr noundef null, i32 noundef 0, ptr noundef nonnull @.str, ptr noundef nonnull @.str.1, ptr noundef nonnull @.str.2, i32 noundef 270) #10
  tail call void @abort() #11
  unreachable

50:                                               ; preds = %av_fifo_can_read.exit.i5
  %51 = icmp eq i64 %.0.i.i6, %storemerge.i
  br i1 %51, label %52, label %av_fifo_drain2.exit

52:                                               ; preds = %50
  %53 = getelementptr inbounds nuw i8, ptr %0, i64 40
  store i32 1, ptr %53, align 8, !tbaa !14
  br label %av_fifo_drain2.exit

av_fifo_drain2.exit:                              ; preds = %50, %52
  %54 = getelementptr inbounds nuw i8, ptr %0, i64 16
  %55 = load i64, ptr %54, align 8, !tbaa !12
  %56 = sub i64 %55, %storemerge.i
  %.not16.i = icmp ult i64 %37, %56
  %57 = sub i64 0, %56
  %storemerge.p.i = select i1 %.not16.i, i64 %storemerge.i, i64 %57
  %storemerge.i8 = add i64 %storemerge.p.i, %37
  store i64 %storemerge.i8, ptr %4, align 8, !tbaa !18
  ret i32 %.0.i
}